target datalayout = "e-m:e-p270:32:32-p271:32:32-p272:64:64-i64:64-i128:128-f80:128-n8:16:32:64-S128"
target triple = "x86_64-pc-linux-gnu"

%struct.Wln_Ntk_t_ = type { ptr, ptr, i32, %struct.Vec_Int_t_, %struct.Vec_Int_t_, %struct.Vec_Int_t_, %struct.Vec_Int_t_, ptr, %struct.Vec_Int_t_, ptr, %struct.Vec_Int_t_, %struct.Vec_Int_t_, ptr, %struct.Vec_Str_t_, i32, %struct.Vec_Int_t_, %struct.Vec_Int_t_, %struct.Vec_Int_t_, %struct.Vec_Int_t_, %struct.Vec_Int_t_, %struct.Vec_Int_t_, %struct.Vec_Int_t_, %struct.Vec_Int_t_, ptr, [99 x i32], [99 x i32] }
%struct.Vec_Str_t_ = type { i32, i32, ptr }
%struct.Vec_Int_t_ = type { i32, i32, ptr }
%struct.Wln_Vec_t_ = type { i32, i32, %union.anon }
%union.anon = type { [1 x ptr] }

; Function Attrs: inlinehint nounwind uwtable
define internal void @Vec_IntWriteEntry(ptr noundef %0, i32 noundef %1, i32 noundef %2) #4 {
  %4 = alloca ptr, align 8
  %5 = alloca i32, align 4
  %6 = alloca i32, align 4
  store ptr %0, ptr %4, align 8, !tbaa !26
  store i32 %1, ptr %5, align 4, !tbaa !8
  store i32 %2, ptr %6, align 4, !tbaa !8
  %7 = load i32, ptr %6, align 4, !tbaa !8
  %8 = load ptr, ptr %4, align 8, !tbaa !26
  %9 = getelementptr inbounds nuw %struct.Vec_Int_t_, ptr %8, i32 0, i32 2
  %10 = load ptr, ptr %9, align 8, !tbaa !29
  %11 = load i32, ptr %5, align 4, !tbaa !8
  %12 = sext i32 %11 to i64
  %13 = getelementptr inbounds i32, ptr %10, i64 %12
  store i32 %7, ptr %13, align 4, !tbaa !8
  ret void
}

; Function Attrs: inlinehint nounwind uwtable
define internal ptr @Wln_ObjFanins(ptr noundef %0, i32 noundef %1) #4 {
  %3 = alloca ptr, align 8
  %4 = alloca i32, align 4
  store ptr %0, ptr %3, align 8, !tbaa !10
  store i32 %1, ptr %4, align 4, !tbaa !8
  %5 = load ptr, ptr %3, align 8, !tbaa !10
  %6 = load i32, ptr %4, align 4, !tbaa !8
  %7 = call i32 @Wln_ObjFaninNum(ptr noundef %5, i32 noundef %6)
  %8 = icmp sgt i32 %7, 2
  br i1 %8, label %9, label %19

9:                                                ; preds = %2
  %10 = load ptr, ptr %3, align 8, !tbaa !10
  %11 = getelementptr inbounds nuw %struct.Wln_Ntk_t_, ptr %10, i32 0, i32 7
  %12 = load ptr, ptr %11, align 8, !tbaa !21
  %13 = load i32, ptr %4, align 4, !tbaa !8
  %14 = sext i32 %13 to i64
  %15 = getelementptr inbounds %struct.Wln_Vec_t_, ptr %12, i64 %14
  %16 = getelementptr inbounds nuw %struct.Wln_Vec_t_, ptr %15, i32 0, i32 2
  %17 = getelementptr inbounds [1 x ptr], ptr %16, i64 0, i64 0
  %18 = load ptr, ptr %17, align 8, !tbaa !35
  br label %28

19:                                               ; preds = %2
  %20 = load ptr, ptr %3, align 8, !tbaa !10
  %21 = getelementptr inbounds nuw %struct.Wln_Ntk_t_, ptr %20, i32 0, i32 7
  %22 = load ptr, ptr %21, align 8, !tbaa !21
  %23 = load i32, ptr %4, align 4, !tbaa !8
  %24 = sext i32 %23 to i64
  %25 = getelementptr inbounds %struct.Wln_Vec_t_, ptr %22, i64 %24
  %26 = getelementptr inbounds nuw %struct.Wln_Vec_t_, ptr %25, i32 0, i32 2
  %27 = getelementptr inbounds [2 x i32], ptr %26, i64 0, i64 0
  br label %28

28:                                               ; preds = %19, %9
  %29 = phi ptr [ %18, %9 ], [ %27, %19 ]
  ret ptr %29
}

; Function Attrs: inlinehint nounwind uwtable
define internal i32 @Wln_ObjType(ptr noundef %0, i32 noundef %1) #4 {
  %3 = alloca ptr, align 8
  %4 = alloca i32, align 4
  store ptr %0, ptr %3, align 8, !tbaa !10
  store i32 %1, ptr %4, align 4, !tbaa !8
  %5 = load ptr, ptr %3, align 8, !tbaa !10
  %6 = getelementptr inbounds nuw %struct.Wln_Ntk_t_, ptr %5, i32 0, i32 6
  %7 = load i32, ptr %4, align 4, !tbaa !8
  %8 = call i32 @Vec_IntEntry(ptr noundef %6, i32 noundef %7)
  ret i32 %8
}

; Function Attrs: inlinehint nounwind uwtable
define internal i32 @Vec_IntEntry(ptr noundef %0, i32 noundef %1) #4 {
  %3 = alloca ptr, align 8
  %4 = alloca i32, align 4
  store ptr %0, ptr %3, align 8, !tbaa !26
  store i32 %1, ptr %4, align 4, !tbaa !8
  %5 = load ptr, ptr %3, align 8, !tbaa !26
  %6 = getelementptr inbounds nuw %struct.Vec_Int_t_, ptr %5, i32 0, i32 2
  %7 = load ptr, ptr %6, align 8, !tbaa !29
  %8 = load i32, ptr %4, align 4, !tbaa !8
  %9 = sext i32 %8 to i64
  %10 = getelementptr inbounds i32, ptr %7, i64 %9
  %11 = load i32, ptr %10, align 4, !tbaa !8
  ret i32 %11
}

; Function Attrs: inlinehint nounwind uwtable
define internal void @Wln_ObjSetCopy(ptr noundef %0, i32 noundef %1, i32 noundef %2) #4 {
  %4 = alloca ptr, align 8
  %5 = alloca i32, align 4
  %6 = alloca i32, align 4
  store ptr %0, ptr %4, align 8, !tbaa !10
  store i32 %1, ptr %5, align 4, !tbaa !8
  store i32 %2, ptr %6, align 4, !tbaa !8
  %7 = load ptr, ptr %4, align 8, !tbaa !10
  %8 = getelementptr inbounds nuw %struct.Wln_Ntk_t_, ptr %7, i32 0, i32 16
  %9 = load i32, ptr %5, align 4, !tbaa !8
  %10 = load i32, ptr %6, align 4, !tbaa !8
  call void @Vec_IntWriteEntry(ptr noundef %8, i32 noundef %9, i32 noundef %10)
  ret void
}

; Function Attrs: inlinehint nounwind uwtable
define internal void @Wln_ObjSetFanin(ptr noundef %0, i32 noundef %1, i32 noundef %2, i32 noundef %3) #4 {
  %5 = alloca ptr, align 8
  %6 = alloca i32, align 4
  %7 = alloca i32, align 4
  %8 = alloca i32, align 4
  store ptr %0, ptr %5, align 8, !tbaa !10
  store i32 %1, ptr %6, align 4, !tbaa !8
  store i32 %2, ptr %7, align 4, !tbaa !8
  store i32 %3, ptr %8, align 4, !tbaa !8
  %9 = load i32, ptr %8, align 4, !tbaa !8
  %10 = load ptr, ptr %5, align 8, !tbaa !10
  %11 = load i32, ptr %6, align 4, !tbaa !8
  %12 = call ptr @Wln_ObjFanins(ptr noundef %10, i32 noundef %11)
  %13 = load i32, ptr %7, align 4, !tbaa !8
  %14 = sext i32 %13 to i64
  %15 = getelementptr inbounds i32, ptr %12, i64 %14
  store i32 %9, ptr %15, align 4, !tbaa !8
  ret void
}

; Function Attrs: inlinehint nounwind uwtable
define internal i32 @Wln_ObjFanin1(ptr noundef %0, i32 noundef %1) #4 {
  %3 = alloca ptr, align 8
  %4 = alloca i32, align 4
  store ptr %0, ptr %3, align 8, !tbaa !10
  store i32 %1, ptr %4, align 4, !tbaa !8
  %5 = load ptr, ptr %3, align 8, !tbaa !10
  %6 = load i32, ptr %4, align 4, !tbaa !8
  %7 = call i32 @Wln_ObjFanin(ptr noundef %5, i32 noundef %6, i32 noundef 1)
  ret i32 %7
}

; Function Attrs: inlinehint nounwind uwtable
define internal i32 @Wln_ObjIsTable(ptr noundef %0, i32 noundef %1) #4 {
  %3 = alloca ptr, align 8
  %4 = alloca i32, align 4
  store ptr %0, ptr %3, align 8, !tbaa !10
  store i32 %1, ptr %4, align 4, !tbaa !8
  %5 = load ptr, ptr %3, align 8, !tbaa !10
  %6 = load i32, ptr %4, align 4, !tbaa !8
  %7 = call i32 @Wln_ObjType(ptr noundef %5, i32 noundef %6)
  %8 = icmp eq i32 %7, 77
  %9 = zext i1 %8 to i32
  ret i32 %9
}

; Function Attrs: inlinehint nounwind uwtable
define internal i32 @Wln_ObjIsRotate(ptr noundef %0, i32 noundef %1) #4 {
  %3 = alloca ptr, align 8
  %4 = alloca i32, align 4
  store ptr %0, ptr %3, align 8, !tbaa !10
  store i32 %1, ptr %4, align 4, !tbaa !8
  %5 = load ptr, ptr %3, align 8, !tbaa !10
  %6 = load i32, ptr %4, align 4, !tbaa !8
  %7 = call i32 @Wln_ObjType(ptr noundef %5, i32 noundef %6)
  %8 = icmp eq i32 %7, 72
  br i1 %8, label %14, label %9

9:                                                ; preds = %2
  %10 = load ptr, ptr %3, align 8, !tbaa !10
  %11 = load i32, ptr %4, align 4, !tbaa !8
  %12 = call i32 @Wln_ObjType(ptr noundef %10, i32 noundef %11)
  %13 = icmp eq i32 %12, 73
  br label %14

14:                                               ; preds = %9, %2
  %15 = phi i1 [ true, %2 ], [ %13, %9 ]
  %16 = zext i1 %15 to i32
  ret i32 %16
}

; Function Attrs: inlinehint nounwind uwtable
define internal i32 @Wln_ObjIsSlice(ptr noundef %0, i32 noundef %1) #4 {
  %3 = alloca ptr, align 8
  %4 = alloca i32, align 4
  store ptr %0, ptr %3, align 8, !tbaa !10
  store i32 %1, ptr %4, align 4, !tbaa !8
  %5 = load ptr, ptr %3, align 8, !tbaa !10
  %6 = load i32, ptr %4, align 4, !tbaa !8
  %7 = call i32 @Wln_ObjType(ptr noundef %5, i32 noundef %6)
  %8 = icmp eq i32 %7, 91
  %9 = zext i1 %8 to i32
  ret i32 %9
}

; Function Attrs: inlinehint nounwind uwtable
define internal i32 @Wln_ObjFanin0(ptr noundef %0, i32 noundef %1) #4 {
  %3 = alloca ptr, align 8
  %4 = alloca i32, align 4
  store ptr %0, ptr %3, align 8, !tbaa !10
  store i32 %1, ptr %4, align 4, !tbaa !8
  %5 = load ptr, ptr %3, align 8, !tbaa !10
  %6 = load i32, ptr %4, align 4, !tbaa !8
  %7 = call i32 @Wln_ObjFanin(ptr noundef %5, i32 noundef %6, i32 noundef 0)
  ret i32 %7
}

; Function Attrs: inlinehint nounwind uwtable
define internal i32 @Wln_ObjIsConst(ptr noundef %0, i32 noundef %1) #4 {
  %3 = alloca ptr, align 8
  %4 = alloca i32, align 4
  store ptr %0, ptr %3, align 8, !tbaa !10
  store i32 %1, ptr %4, align 4, !tbaa !8
  %5 = load ptr, ptr %3, align 8, !tbaa !10
  %6 = load i32, ptr %4, align 4, !tbaa !8
  %7 = call i32 @Wln_ObjType(ptr noundef %5, i32 noundef %6)
  %8 = icmp eq i32 %7, 97
  %9 = zext i1 %8 to i32
  ret i32 %9
}

; Function Attrs: inlinehint nounwind uwtable
define internal i32 @Wln_ObjCopy(ptr noundef %0, i32 noundef %1) #4 {
  %3 = alloca ptr, align 8
  %4 = alloca i32, align 4
  store ptr %0, ptr %3, align 8, !tbaa !10
  store i32 %1, ptr %4, align 4, !tbaa !8
  %5 = load ptr, ptr %3, align 8, !tbaa !10
  %6 = getelementptr inbounds nuw %struct.Wln_Ntk_t_, ptr %5, i32 0, i32 16
  %7 = load i32, ptr %4, align 4, !tbaa !8
  %8 = call i32 @Vec_IntEntry(ptr noundef %6, i32 noundef %7)
  ret i32 %8
}

; Function Attrs: inlinehint nounwind uwtable
define internal i32 @Wln_ObjFanin(ptr noundef %0, i32 noundef %1, i32 noundef %2) #4 {
  %4 = alloca ptr, align 8
  %5 = alloca i32, align 4
  %6 = alloca i32, align 4
  store ptr %0, ptr %4, align 8, !tbaa !10
  store i32 %1, ptr %5, align 4, !tbaa !8
  store i32 %2, ptr %6, align 4, !tbaa !8
  %7 = load ptr, ptr %4, align 8, !tbaa !10
  %8 = load i32, ptr %5, align 4, !tbaa !8
  %9 = call i32 @Wln_ObjFaninNum(ptr noundef %7, i32 noundef %8)
  %10 = icmp sgt i32 %9, 2
  br i1 %10, label %11, label %25

11:                                               ; preds = %3
  %12 = load ptr, ptr %4, align 8, !tbaa !10
  %13 = getelementptr inbounds nuw %struct.Wln_Ntk_t_, ptr %12, i32 0, i32 7
  %14 = load ptr, ptr %13, align 8, !tbaa !21
  %15 = load i32, ptr %5, align 4, !tbaa !8
  %16 = sext i32 %15 to i64
  %17 = getelementptr inbounds %struct.Wln_Vec_t_, ptr %14, i64 %16
  %18 = getelementptr inbounds nuw %struct.Wln_Vec_t_, ptr %17, i32 0, i32 2
  %19 = getelementptr inbounds [1 x ptr], ptr %18, i64 0, i64 0
  %20 = load ptr, ptr %19, align 8, !tbaa !35
  %21 = load i32, ptr %6, align 4, !tbaa !8
  %22 = sext i32 %21 to i64
  %23 = getelementptr inbounds i32, ptr %20, i64 %22
  %24 = load i32, ptr %23, align 4, !tbaa !8
  br label %37

25:                                               ; preds = %3
  %26 = load ptr, ptr %4, align 8, !tbaa !10
  %27 = getelementptr inbounds nuw %struct.Wln_Ntk_t_, ptr %26, i32 0, i32 7
  %28 = load ptr, ptr %27, align 8, !tbaa !21
  %29 = load i32, ptr %5, align 4, !tbaa !8
  %30 = sext i32 %29 to i64
  %31 = getelementptr inbounds %struct.Wln_Vec_t_, ptr %28, i64 %30
  %32 = getelementptr inbounds nuw %struct.Wln_Vec_t_, ptr %31, i32 0, i32 2
  %33 = load i32, ptr %6, align 4, !tbaa !8
  %34 = sext i32 %33 to i64
  %35 = getelementptr inbounds [2 x i32], ptr %32, i64 0, i64 %34
  %36 = load i32, ptr %35, align 4, !tbaa !35
  br label %37

37:                                               ; preds = %25, %11
  %38 = phi i32 [ %24, %11 ], [ %36, %25 ]
  ret i32 %38
}

; Function Attrs: inlinehint nounwind uwtable
define internal i32 @Wln_ObjFaninNum(ptr noundef %0, i32 noundef %1) #4 {
  %3 = alloca ptr, align 8
  %4 = alloca i32, align 4
  store ptr %0, ptr %3, align 8, !tbaa !10
  store i32 %1, ptr %4, align 4, !tbaa !8
  %5 = load ptr, ptr %3, align 8, !tbaa !10
  %6 = getelementptr inbounds nuw %struct.Wln_Ntk_t_, ptr %5, i32 0, i32 7
  %7 = load ptr, ptr %6, align 8, !tbaa !21
  %8 = load i32, ptr %4, align 4, !tbaa !8
  %9 = sext i32 %8 to i64
  %10 = getelementptr inbounds %struct.Wln_Vec_t_, ptr %7, i64 %9
  %11 = getelementptr inbounds nuw %struct.Wln_Vec_t_, ptr %10, i32 0, i32 1
  %12 = load i32, ptr %11, align 4, !tbaa !69
  ret i32 %12
}

; Function Attrs: nounwind uwtable
define i32 @Wln_ObjDup(ptr noundef %0, ptr noundef %1, i32 noundef %2) #0 {
  %4 = alloca ptr, align 8
  %5 = alloca ptr, align 8
  %6 = alloca i32, align 4
  %7 = alloca i32, align 4
  %8 = alloca i32, align 4
  %9 = alloca i32, align 4
  store ptr %0, ptr %4, align 8, !tbaa !10
  store ptr %1, ptr %5, align 8, !tbaa !10
  store i32 %2, ptr %6, align 4, !tbaa !8
  call void @llvm.lifetime.start.p0(i64 4, ptr %7) #11
  call void @llvm.lifetime.start.p0(i64 4, ptr %8) #11
  call void @llvm.lifetime.start.p0(i64 4, ptr %9) #11
  %10 = load ptr, ptr %4, align 8, !tbaa !10
  %11 = load ptr, ptr %5, align 8, !tbaa !10
  %12 = load i32, ptr %6, align 4, !tbaa !8
  %13 = call i32 @Wln_ObjClone(ptr noundef %10, ptr noundef %11, i32 noundef %12)
  store i32 %13, ptr %9, align 4, !tbaa !8
  store i32 0, ptr %7, align 4, !tbaa !8
  br label %14

14:                                               ; preds = %38, %3
  %15 = load i32, ptr %7, align 4, !tbaa !8
  %16 = load ptr, ptr %5, align 8, !tbaa !10
  %17 = load i32, ptr %6, align 4, !tbaa !8
  %18 = call i32 @Wln_ObjFaninNum(ptr noundef %16, i32 noundef %17)
  %19 = icmp slt i32 %15, %18
  br i1 %19, label %20, label %25

20:                                               ; preds = %14
  %21 = load ptr, ptr %5, align 8, !tbaa !10
  %22 = load i32, ptr %6, align 4, !tbaa !8
  %23 = load i32, ptr %7, align 4, !tbaa !8
  %24 = call i32 @Wln_ObjFanin(ptr noundef %21, i32 noundef %22, i32 noundef %23)
  store i32 %24, ptr %8, align 4, !tbaa !8
  br label %25

25:                                               ; preds = %20, %14
  %26 = phi i1 [ false, %14 ], [ true, %20 ]
  br i1 %26, label %27, label %41

27:                                               ; preds = %25
  %28 = load i32, ptr %8, align 4, !tbaa !8
  %29 = icmp ne i32 %28, 0
  br i1 %29, label %31, label %30

30:                                               ; preds = %27
  br label %37

31:                                               ; preds = %27
  %32 = load ptr, ptr %4, align 8, !tbaa !10
  %33 = load i32, ptr %9, align 4, !tbaa !8
  %34 = load ptr, ptr %5, align 8, !tbaa !10
  %35 = load i32, ptr %8, align 4, !tbaa !8
  %36 = call i32 @Wln_ObjCopy(ptr noundef %34, i32 noundef %35)
  call void @Wln_ObjAddFanin(ptr noundef %32, i32 noundef %33, i32 noundef %36)
  br label %37

37:                                               ; preds = %31, %30
  br label %38

38:                                               ; preds = %37
  %39 = load i32, ptr %7, align 4, !tbaa !8
  %40 = add nsw i32 %39, 1
  store i32 %40, ptr %7, align 4, !tbaa !8
  br label %14, !llvm.loop !101

41:                                               ; preds = %25
  %42 = load ptr, ptr %5, align 8, !tbaa !10
  %43 = load i32, ptr %6, align 4, !tbaa !8
  %44 = call i32 @Wln_ObjIsConst(ptr noundef %42, i32 noundef %43)
  %45 = icmp ne i32 %44, 0
  br i1 %45, label %46, label %52

46:                                               ; preds = %41
  %47 = load ptr, ptr %4, align 8, !tbaa !10
  %48 = load i32, ptr %9, align 4, !tbaa !8
  %49 = load ptr, ptr %5, align 8, !tbaa !10
  %50 = load i32, ptr %6, align 4, !tbaa !8
  %51 = call i32 @Wln_ObjFanin0(ptr noundef %49, i32 noundef %50)
  call void @Wln_ObjSetConst(ptr noundef %47, i32 noundef %48, i32 noundef %51)
  br label %74

52:                                               ; preds = %41
  %53 = load ptr, ptr %5, align 8, !tbaa !10
  %54 = load i32, ptr %6, align 4, !tbaa !8
  %55 = call i32 @Wln_ObjIsSlice(ptr noundef %53, i32 noundef %54)
  %56 = icmp ne i32 %55, 0
  br i1 %56, label %67, label %57

57:                                               ; preds = %52
  %58 = load ptr, ptr %5, align 8, !tbaa !10
  %59 = load i32, ptr %6, align 4, !tbaa !8
  %60 = call i32 @Wln_ObjIsRotate(ptr noundef %58, i32 noundef %59)
  %61 = icmp ne i32 %60, 0
  br i1 %61, label %67, label %62

62:                                               ; preds = %57
  %63 = load ptr, ptr %5, align 8, !tbaa !10
  %64 = load i32, ptr %6, align 4, !tbaa !8
  %65 = call i32 @Wln_ObjIsTable(ptr noundef %63, i32 noundef %64)
  %66 = icmp ne i32 %65, 0
  br i1 %66, label %67, label %73

67:                                               ; preds = %62, %57, %52
  %68 = load ptr, ptr %4, align 8, !tbaa !10
  %69 = load i32, ptr %9, align 4, !tbaa !8
  %70 = load ptr, ptr %5, align 8, !tbaa !10
  %71 = load i32, ptr %6, align 4, !tbaa !8
  %72 = call i32 @Wln_ObjFanin1(ptr noundef %70, i32 noundef %71)
  call void @Wln_ObjSetFanin(ptr noundef %68, i32 noundef %69, i32 noundef 1, i32 noundef %72)
  br label %73

73:                                               ; preds = %67, %62
  br label %74

74:                                               ; preds = %73, %46
  %75 = load ptr, ptr %5, align 8, !tbaa !10
  %76 = load i32, ptr %6, align 4, !tbaa !8
  %77 = load i32, ptr %9, align 4, !tbaa !8
  call void @Wln_ObjSetCopy(ptr noundef %75, i32 noundef %76, i32 noundef %77)
  %78 = load i32, ptr %9, align 4, !tbaa !8
  call void @llvm.lifetime.end.p0(i64 4, ptr %9) #11
  call void @llvm.lifetime.end.p0(i64 4, ptr %8) #11
  call void @llvm.lifetime.end.p0(i64 4, ptr %7) #11
  ret i32 %78
}