; Function Attrs: nounwind uwtable
define i32 @Wln_ObjDup(ptr noundef %0, ptr noundef %1, i32 noundef %2) local_unnamed_addr #0 {
  %4 = tail call i32 @Wln_ObjClone(ptr noundef %0, ptr noundef %1, i32 noundef %2) #18
  %5 = getelementptr i8, ptr %1, i64 88
  %6 = sext i32 %2 to i64
  %.val53 = load ptr, ptr %5, align 8, !tbaa !25
  %7 = getelementptr inbounds %struct.Wln_Vec_t_, ptr %.val53, i64 %6, i32 1
  %8 = load i32, ptr %7, align 4, !tbaa !43
  %9 = icmp sgt i32 %8, 0
  br i1 %9, label %.lr.ph, label %.critedge

.lr.ph:                                           ; preds = %3
  %10 = getelementptr i8, ptr %1, i64 208
  br label %11

11:                                               ; preds = %.lr.ph, %25
  %.val61 = phi ptr [ %.val53, %.lr.ph ], [ %.val, %25 ]
  %indvars.iv = phi i64 [ 0, %.lr.ph ], [ %indvars.iv.next, %25 ]
  %12 = phi i32 [ %8, %.lr.ph ], [ %27, %25 ]
  %13 = icmp sgt i32 %12, 2
  %14 = getelementptr inbounds %struct.Wln_Vec_t_, ptr %.val61, i64 %6, i32 2
  br i1 %13, label %15, label %18

15:                                               ; preds = %11
  %16 = load ptr, ptr %14, align 8, !tbaa !24
  %17 = getelementptr inbounds nuw i32, ptr %16, i64 %indvars.iv
  br label %Wln_ObjFanin.exit

18:                                               ; preds = %11
  %19 = getelementptr inbounds nuw [2 x i32], ptr %14, i64 0, i64 %indvars.iv
  br label %Wln_ObjFanin.exit

Wln_ObjFanin.exit:                                ; preds = %15, %18
  %.in.i = phi ptr [ %17, %15 ], [ %19, %18 ]
  %20 = load i32, ptr %.in.i, align 4, !tbaa !24
  %.not38 = icmp eq i32 %20, 0
  br i1 %.not38, label %25, label %21

21:                                               ; preds = %Wln_ObjFanin.exit
  %.val40 = load ptr, ptr %10, align 8, !tbaa !17
  %22 = sext i32 %20 to i64
  %23 = getelementptr inbounds i32, ptr %.val40, i64 %22
  %24 = load i32, ptr %23, align 4, !tbaa !22
  tail call void @Wln_ObjAddFanin(ptr noundef %0, i32 noundef %4, i32 noundef %24) #18
  %.val.pre = load ptr, ptr %5, align 8, !tbaa !25
  br label %25

25:                                               ; preds = %21, %Wln_ObjFanin.exit
  %.val = phi ptr [ %.val.pre, %21 ], [ %.val61, %Wln_ObjFanin.exit ]
  %indvars.iv.next = add nuw nsw i64 %indvars.iv, 1
  %26 = getelementptr inbounds %struct.Wln_Vec_t_, ptr %.val, i64 %6, i32 1
  %27 = load i32, ptr %26, align 4, !tbaa !43
  %28 = sext i32 %27 to i64
  %29 = icmp slt i64 %indvars.iv.next, %28
  br i1 %29, label %11, label %.critedge.loopexit, !llvm.loop !94

.critedge.loopexit:                               ; preds = %25
  %30 = icmp sgt i32 %27, 2
  br label %.critedge

.critedge:                                        ; preds = %.critedge.loopexit, %3
  %.val.lcssa = phi ptr [ %.val53, %3 ], [ %.val, %.critedge.loopexit ]
  %.lcssa = phi i1 [ false, %3 ], [ %30, %.critedge.loopexit ]
  %31 = getelementptr i8, ptr %1, i64 80
  %.val41 = load ptr, ptr %31, align 8, !tbaa !17
  %32 = getelementptr inbounds i32, ptr %.val41, i64 %6
  %33 = load i32, ptr %32, align 4, !tbaa !22
  switch i32 %33, label %54 [
    i32 97, label %34
    i32 91, label %39
    i32 77, label %39
    i32 73, label %39
    i32 72, label %39
  ]

34:                                               ; preds = %.critedge
  %35 = getelementptr inbounds %struct.Wln_Vec_t_, ptr %.val.lcssa, i64 %6, i32 2
  br i1 %.lcssa, label %36, label %Wln_ObjFanin0.exit

36:                                               ; preds = %34
  %37 = load ptr, ptr %35, align 8, !tbaa !24
  br label %Wln_ObjFanin0.exit

Wln_ObjFanin0.exit:                               ; preds = %34, %36
  %.in.i.i = phi ptr [ %37, %36 ], [ %35, %34 ]
  %38 = load i32, ptr %.in.i.i, align 4, !tbaa !24
  tail call void @Wln_ObjSetConst(ptr noundef %0, i32 noundef %4, i32 noundef %38) #18
  br label %54

39:                                               ; preds = %.critedge, %.critedge, %.critedge, %.critedge
  %40 = getelementptr inbounds %struct.Wln_Vec_t_, ptr %.val.lcssa, i64 %6, i32 2
  br i1 %.lcssa, label %41, label %Wln_ObjFanin1.exit

41:                                               ; preds = %39
  %42 = load ptr, ptr %40, align 8, !tbaa !24
  br label %Wln_ObjFanin1.exit

Wln_ObjFanin1.exit:                               ; preds = %39, %41
  %.pn.i = phi ptr [ %42, %41 ], [ %40, %39 ]
  %.in.i.i49 = getelementptr inbounds nuw i8, ptr %.pn.i, i64 4
  %43 = load i32, ptr %.in.i.i49, align 4, !tbaa !24
  %44 = getelementptr i8, ptr %0, i64 88
  %.val47 = load ptr, ptr %44, align 8, !tbaa !25
  %45 = sext i32 %4 to i64
  %46 = getelementptr inbounds %struct.Wln_Vec_t_, ptr %.val47, i64 %45, i32 1
  %47 = load i32, ptr %46, align 4, !tbaa !43
  %48 = icmp sgt i32 %47, 2
  %49 = getelementptr inbounds %struct.Wln_Vec_t_, ptr %.val47, i64 %45, i32 2
  br i1 %48, label %50, label %Wln_ObjSetFanin.exit

50:                                               ; preds = %Wln_ObjFanin1.exit
  %51 = load ptr, ptr %49, align 8, !tbaa !24
  br label %Wln_ObjSetFanin.exit

Wln_ObjSetFanin.exit:                             ; preds = %Wln_ObjFanin1.exit, %50
  %52 = phi ptr [ %51, %50 ], [ %49, %Wln_ObjFanin1.exit ]
  %53 = getelementptr inbounds nuw i8, ptr %52, i64 4
  store i32 %43, ptr %53, align 4, !tbaa !22
  br label %54

54:                                               ; preds = %.critedge, %Wln_ObjSetFanin.exit, %Wln_ObjFanin0.exit
  %55 = getelementptr i8, ptr %1, i64 208
  %.val48 = load ptr, ptr %55, align 8, !tbaa !17
  %56 = getelementptr inbounds i32, ptr %.val48, i64 %6
  store i32 %4, ptr %56, align 4, !tbaa !22
  ret i32 %4
}